; Function Attrs: mustprogress uwtable
define hidden void @_ZN5zxing23SimpleAdaptiveBinarizer15createBinarizerENS_3RefINS_15LuminanceSourceEEE(ptr dead_on_unwind noalias writable writeonly sret(%"class.zxing::Ref.13") align 8 captures(none) %0, ptr nonnull readnone align 8 captures(none) %1, ptr noundef readonly captures(none) %2) unnamed_addr #0 align 2 personality ptr @__gxx_personality_v0 {
  %4 = alloca %"class.zxing::Ref", align 8
  %5 = tail call noalias noundef nonnull dereferenceable(128) ptr @_Znwm(i64 noundef 128) #12
  %6 = load ptr, ptr %2, align 8, !tbaa !3
  %.not.i.i = icmp eq ptr %6, null
  br i1 %.not.i.i, label %_ZN5zxing3RefINS_15LuminanceSourceEEC2ERKS2_.exit.thread, label %7

_ZN5zxing3RefINS_15LuminanceSourceEEC2ERKS2_.exit.thread: ; preds = %3
  call void @llvm.lifetime.start.p0(i64 8, ptr nonnull %4)
  br label %_ZN5zxing3RefINS_15LuminanceSourceEEC2ERKS2_.exit.i

7:                                                ; preds = %3
  %8 = getelementptr inbounds nuw i8, ptr %6, i64 8
  %9 = load i32, ptr %8, align 8, !tbaa !9
  call void @llvm.lifetime.start.p0(i64 8, ptr nonnull %4)
  %10 = add i32 %9, 2
  store i32 %10, ptr %8, align 8, !tbaa !9
  br label %_ZN5zxing3RefINS_15LuminanceSourceEEC2ERKS2_.exit.i

_ZN5zxing3RefINS_15LuminanceSourceEEC2ERKS2_.exit.i: ; preds = %_ZN5zxing3RefINS_15LuminanceSourceEEC2ERKS2_.exit.thread, %7
  store ptr %6, ptr %4, align 8, !tbaa !3
  invoke void @_ZN5zxing24GlobalHistogramBinarizerC2ENS_3RefINS_15LuminanceSourceEEE(ptr noundef nonnull align 8 dereferenceable(122) %5, ptr noundef nonnull %4)
          to label %11 unwind label %22

11:                                               ; preds = %_ZN5zxing3RefINS_15LuminanceSourceEEC2ERKS2_.exit.i
  %12 = load ptr, ptr %4, align 8, !tbaa !3
  %.not.i.i5 = icmp eq ptr %12, null
  br i1 %.not.i.i5, label %34, label %13

13:                                               ; preds = %11
  %14 = getelementptr inbounds nuw i8, ptr %12, i64 8
  %15 = load i32, ptr %14, align 8, !tbaa !9
  %16 = add i32 %15, -1
  store i32 %16, ptr %14, align 8, !tbaa !9
  %17 = icmp eq i32 %16, 0
  br i1 %17, label %18, label %34

18:                                               ; preds = %13
  store i32 -559026175, ptr %14, align 8, !tbaa !9
  %19 = load ptr, ptr %12, align 8, !tbaa !12
  %20 = getelementptr inbounds nuw i8, ptr %19, i64 8
  %21 = load ptr, ptr %20, align 8
  call void %21(ptr noundef nonnull align 8 dereferenceable(12) %12) #10
  br label %34

22:                                               ; preds = %_ZN5zxing3RefINS_15LuminanceSourceEEC2ERKS2_.exit.i
  %23 = landingpad { ptr, i32 }
          cleanup
  %24 = load ptr, ptr %4, align 8, !tbaa !3
  %.not.i2.i = icmp eq ptr %24, null
  br i1 %.not.i2.i, label %.body, label %25

25:                                               ; preds = %22
  %26 = getelementptr inbounds nuw i8, ptr %24, i64 8
  %27 = load i32, ptr %26, align 8, !tbaa !9
  %28 = add i32 %27, -1
  store i32 %28, ptr %26, align 8, !tbaa !9
  %29 = icmp eq i32 %28, 0
  br i1 %29, label %30, label %.body

30:                                               ; preds = %25
  store i32 -559026175, ptr %26, align 8, !tbaa !9
  %31 = load ptr, ptr %24, align 8, !tbaa !12
  %32 = getelementptr inbounds nuw i8, ptr %31, i64 8
  %33 = load ptr, ptr %32, align 8
  call void %33(ptr noundef nonnull align 8 dereferenceable(12) %24) #10
  br label %.body

34:                                               ; preds = %11, %13, %18
  store ptr getelementptr inbounds nuw inrange(-16, 48) (i8, ptr @_ZTVN5zxing23SimpleAdaptiveBinarizerE, i64 16), ptr %5, align 8, !tbaa !12
  %35 = getelementptr inbounds nuw i8, ptr %5, i64 121
  store i8 0, ptr %35, align 1, !tbaa !14
  call void @llvm.lifetime.end.p0(i64 8, ptr nonnull %4)
  %36 = getelementptr inbounds nuw i8, ptr %5, i64 8
  %37 = load i32, ptr %36, align 8, !tbaa !9
  %38 = add i32 %37, 1
  store i32 %38, ptr %36, align 8, !tbaa !9
  store ptr %5, ptr %0, align 8, !tbaa !50
  br i1 %.not.i.i, label %_ZN5zxing3RefINS_15LuminanceSourceEED2Ev.exit, label %39

39:                                               ; preds = %34
  %40 = getelementptr inbounds nuw i8, ptr %6, i64 8
  %41 = load i32, ptr %40, align 8, !tbaa !9
  %42 = add i32 %41, -1
  store i32 %42, ptr %40, align 8, !tbaa !9
  %43 = icmp eq i32 %42, 0
  br i1 %43, label %44, label %_ZN5zxing3RefINS_15LuminanceSourceEED2Ev.exit

44:                                               ; preds = %39
  store i32 -559026175, ptr %40, align 8, !tbaa !9
  %45 = load ptr, ptr %6, align 8, !tbaa !12
  %46 = getelementptr inbounds nuw i8, ptr %45, i64 8
  %47 = load ptr, ptr %46, align 8
  call void %47(ptr noundef nonnull align 8 dereferenceable(12) %6) #10
  br label %_ZN5zxing3RefINS_15LuminanceSourceEED2Ev.exit

_ZN5zxing3RefINS_15LuminanceSourceEED2Ev.exit:    ; preds = %34, %39, %44
  ret void

.body:                                            ; preds = %22, %25, %30
  br i1 %.not.i.i, label %_ZN5zxing3RefINS_15LuminanceSourceEED2Ev.exit8, label %48

48:                                               ; preds = %.body
  %49 = getelementptr inbounds nuw i8, ptr %6, i64 8
  %50 = load i32, ptr %49, align 8, !tbaa !9
  %51 = add i32 %50, -1
  store i32 %51, ptr %49, align 8, !tbaa !9
  %52 = icmp eq i32 %51, 0
  br i1 %52, label %53, label %_ZN5zxing3RefINS_15LuminanceSourceEED2Ev.exit8

53:                                               ; preds = %48
  store i32 -559026175, ptr %49, align 8, !tbaa !9
  %54 = load ptr, ptr %6, align 8, !tbaa !12
  %55 = getelementptr inbounds nuw i8, ptr %54, i64 8
  %56 = load ptr, ptr %55, align 8
  call void %56(ptr noundef nonnull align 8 dereferenceable(12) %6) #10
  br label %_ZN5zxing3RefINS_15LuminanceSourceEED2Ev.exit8

_ZN5zxing3RefINS_15LuminanceSourceEED2Ev.exit8:   ; preds = %.body, %48, %53
  call void @_ZdlPv(ptr noundef nonnull %5) #11
  resume { ptr, i32 } %23
}